; Function Attrs: nounwind uwtable
define internal range(i32 0, 2) i32 @DbBusyHandler(ptr noundef readonly captures(none) %0, i32 noundef %1) #0 {
  %3 = alloca [30 x i8], align 16
  call void @llvm.lifetime.start.p0(i64 30, ptr nonnull %3) #14
  %4 = call ptr (i32, ptr, ptr, ...) @sqlite3_snprintf(i32 noundef 30, ptr noundef nonnull %3, ptr noundef nonnull @.str.122, i32 noundef %1) #14
  %5 = load ptr, ptr @tclStubsPtr, align 8, !tbaa !3
  %6 = getelementptr inbounds nuw i8, ptr %5, i64 2096
  %7 = load ptr, ptr %6, align 8, !tbaa !129
  %8 = getelementptr inbounds nuw i8, ptr %0, i64 8
  %9 = load ptr, ptr %8, align 8, !tbaa !39
  %10 = getelementptr inbounds nuw i8, ptr %0, i64 16
  %11 = load ptr, ptr %10, align 8, !tbaa !50
  %12 = call i32 (ptr, ...) %7(ptr noundef %9, ptr noundef %11, ptr noundef nonnull @.str.217, ptr noundef nonnull %3, ptr noundef null) #14
  %.not = icmp eq i32 %12, 0
  br i1 %.not, label %13, label %21

13:                                               ; preds = %2
  %14 = load ptr, ptr @tclStubsPtr, align 8, !tbaa !3
  %15 = getelementptr inbounds nuw i8, ptr %14, i64 1408
  %16 = load ptr, ptr %15, align 8, !tbaa !128
  %17 = load ptr, ptr %8, align 8, !tbaa !39
  %18 = call ptr %16(ptr noundef %17) #14
  %19 = call i64 @strtol(ptr noundef nonnull captures(none) %18, ptr noundef null, i32 noundef 10) #14
  %20 = and i64 %19, 4294967295
  %.not6 = icmp eq i64 %20, 0
  %spec.select = zext i1 %.not6 to i32
  br label %21

21:                                               ; preds = %13, %2
  %.0 = phi i32 [ 0, %2 ], [ %spec.select, %13 ]
  call void @llvm.lifetime.end.p0(i64 30, ptr nonnull %3) #14
  ret i32 %.0
}